(dp1
S'files'
p2
(dp3
S'chemreac_util_tests_test_stoich'
p4
(dp5
S'index'
p6
(dp7
S'html_filename'
p8
S'chemreac_util_tests_test_stoich.html'
p9
sS'name'
p10
S'chemreac/util/tests/test_stoich'
p11
sS'nums'
p12
ccopy_reg
_reconstructor
p13
(ccoverage.results
Numbers
p14
c__builtin__
object
p15
NtRp16
(dp17
S'n_files'
p18
I1
sS'n_branches'
p19
I0
sS'n_statements'
p20
I16
sS'n_excluded'
p21
I0
sS'n_partial_branches'
p22
I0
sS'n_missing'
p23
I0
sS'n_missing_branches'
p24
I0
sbssS'hash'
p25
S'\t\x82\x91\x9d\xaa-\x1f\x11\xef\x84\x0b\x143\x8eV['
p26
ssS'chemreac_util_tests_test_pyutil'
p27
(dp28
g6
(dp29
g8
S'chemreac_util_tests_test_pyutil.html'
p30
sg10
S'chemreac/util/tests/test_pyutil'
p31
sg12
g13
(g14
g15
NtRp32
(dp33
g18
I1
sg19
I0
sg20
I9
sg21
I0
sg22
I0
sg23
I0
sg24
I0
sbssg25
S'\xb0[\x8d<\xdf;\x0b\xf0S\x01\x07Z\xf7\xb5\xcd\xe4'
p34
ssS'chemreac_util_table'
p35
(dp36
g6
(dp37
g8
S'chemreac_util_table.html'
p38
sg10
S'chemreac/util/table'
p39
sg12
g13
(g14
g15
NtRp40
(dp41
g18
I1
sg19
I0
sg20
I47
sg21
I0
sg22
I0
sg23
I10
sg24
I0
sbssg25
S"8\xf8X\xab\x84'O\xf9d\xb9\xa9C/\xcd?\x88"
p42
ssS'chemreac___init__'
p43
(dp44
g6
(dp45
g8
S'chemreac___init__.html'
p46
sg10
S'chemreac/__init__'
p47
sg12
g13
(g14
g15
NtRp48
(dp49
g18
I1
sg19
I0
sg20
I5
sg21
I0
sg22
I0
sg23
I0
sg24
I0
sbssg25
S'\x95-\x91\xec\xa4\xe2lH`>%\xb2\x1e\xf2N\xb8'
p50
ssS'chemreac_util_tests___init__'
p51
(dp52
g6
(dp53
g8
S'chemreac_util_tests___init__.html'
p54
sg10
S'chemreac/util/tests/__init__'
p55
sg12
g13
(g14
g15
NtRp56
(dp57
g18
I1
sg19
I0
sg20
I0
sg21
I0
sg22
I0
sg23
I0
sg24
I0
sbssg25
S'\xca\xf5\x9f\x7f\x88\xdfa\x831|T\x1d\xbc}\xa5v'
p58
ssS'chemreac_util_pyutil'
p59
(dp60
g6
(dp61
g8
S'chemreac_util_pyutil.html'
p62
sg10
S'chemreac/util/pyutil'
p63
sg12
g13
(g14
g15
NtRp64
(dp65
g18
I1
sg19
I0
sg20
I13
sg21
I0
sg22
I0
sg23
I0
sg24
I0
sbssg25
S'\xba\x8e\x0e\xe9S3\x0c\xc4=y\x1cX\xda\xae\x1b`'
p66
ssS'chemreac_tests_test_binary_system'
p67
(dp68
g6
(dp69
g8
S'chemreac_tests_test_binary_system.html'
p70
sg10
S'chemreac/tests/test_binary_system'
p71
sg12
g13
(g14
g15
NtRp72
(dp73
g18
I1
sg19
I0
sg20
I118
sg21
I0
sg22
I0
sg23
I0
sg24
I0
sbssg25
S'em[`y\xcf\x995$\xbb\xe3\x80%ai\xa2'
p74
ssS'chemreac_tests_test_four_species'
p75
(dp76
g6
(dp77
g8
S'chemreac_tests_test_four_species.html'
p78
sg10
S'chemreac/tests/test_four_species'
p79
sg12
g13
(g14
g15
NtRp80
(dp81
g18
I1
sg19
I0
sg20
I119
sg21
I0
sg22
I0
sg23
I15
sg24
I0
sbssg25
S'\xa4\xfc\xc1\xba\x1e\xd2\x82\xce\x86\x0e\xc8v9\xa1\xc8\xdd'
p82
ssS'chemreac_util___init__'
p83
(dp84
g6
(dp85
g8
S'chemreac_util___init__.html'
p86
sg10
S'chemreac/util/__init__'
p87
sg12
g13
(g14
g15
NtRp88
(dp89
g18
I1
sg19
I0
sg20
I0
sg21
I0
sg22
I0
sg23
I0
sg24
I0
sbssg25
S'--\xe0\xcd\xd0\x1c\xac&\x80\x0f\xe51f\xf0P\xec'
p90
ssS'chemreac_tests_test_reactiondiffusion'
p91
(dp92
g6
(dp93
g8
S'chemreac_tests_test_reactiondiffusion.html'
p94
sg10
S'chemreac/tests/test_reactiondiffusion'
p95
sg12
g13
(g14
g15
NtRp96
(dp97
g18
I1
sg19
I0
sg20
I469
sg21
I0
sg22
I0
sg23
I16
sg24
I0
sbssg25
S':#T\xd4@\x9b\xc1\xdb\n/Yo\xd3%\x93\x95'
p98
ssS'chemreac_tests_test_chemistry'
p99
(dp100
g6
(dp101
g8
S'chemreac_tests_test_chemistry.html'
p102
sg10
S'chemreac/tests/test_chemistry'
p103
sg12
g13
(g14
g15
NtRp104
(dp105
g18
I1
sg19
I0
sg20
I25
sg21
I0
sg22
I0
sg23
I0
sg24
I0
sbssg25
S'\x1c2/u\xaf=\xe2\xcf\x15u\x03\xd7\xc3\xc5\xaez'
p106
ssS'chemreac_release'
p107
(dp108
g6
(dp109
g8
S'chemreac_release.html'
p110
sg10
S'chemreac/release'
p111
sg12
g13
(g14
g15
NtRp112
(dp113
g18
I1
sg19
I0
sg20
I1
sg21
I0
sg22
I0
sg23
I0
sg24
I0
sbssg25
S'y\xa6:s\xe4\xfbd\xc9\x88vZx`#6\x04'
p114
ssS'chemreac_util_testing'
p115
(dp116
g6
(dp117
g8
S'chemreac_util_testing.html'
p118
sg10
S'chemreac/util/testing'
p119
sg12
g13
(g14
g15
NtRp120
(dp121
g18
I1
sg19
I0
sg20
I29
sg21
I0
sg22
I0
sg23
I1
sg24
I0
sbssg25
S'(\xe5$\xfd\xc5\xd08EW\xeb]\x0f.d\xdd\xce'
p122
ssS'chemreac_util_plotting'
p123
(dp124
g6
(dp125
g8
S'chemreac_util_plotting.html'
p126
sg10
S'chemreac/util/plotting'
p127
sg12
g13
(g14
g15
NtRp128
(dp129
g18
I1
sg19
I0
sg20
I196
sg21
I0
sg22
I0
sg23
I24
sg24
I0
sbssg25
S'|c=\x10\xd8EK\x14\xe7\x82k\xa6\xe2\x1f\xdf\xdf'
p130
ssS'chemreac_serialization'
p131
(dp132
g6
(dp133
g8
S'chemreac_serialization.html'
p134
sg10
S'chemreac/serialization'
p135
sg12
g13
(g14
g15
NtRp136
(dp137
g18
I1
sg19
I0
sg20
I21
sg21
I0
sg22
I0
sg23
I5
sg24
I0
sbssg25
S'\x7fo\x084/K1\xd1\xbb\x9a\xef\xc1\x1eH\x03\xfb'
p138
ssS'chemreac_chemistry'
p139
(dp140
g6
(dp141
g8
S'chemreac_chemistry.html'
p142
sg10
S'chemreac/chemistry'
p143
sg12
g13
(g14
g15
NtRp144
(dp145
g18
I1
sg19
I0
sg20
I160
sg21
I0
sg22
I0
sg23
I29
sg24
I0
sbssg25
S'\xd7\xa19\xfc(l%vD/\x16p\xbc\xa5z\xb6'
p146
ssS'chemreac_util_tests_test_graph'
p147
(dp148
g6
(dp149
g8
S'chemreac_util_tests_test_graph.html'
p150
sg10
S'chemreac/util/tests/test_graph'
p151
sg12
g13
(g14
g15
NtRp152
(dp153
g18
I1
sg19
I0
sg20
I21
sg21
I0
sg22
I0
sg23
I0
sg24
I0
sbssg25
S'\x80\x90x\xae\xa3$\x12/1\xbe\xd0\xb3Pc\xe0\x86'
p154
ssS'chemreac_util_stoich'
p155
(dp156
g6
(dp157
g8
S'chemreac_util_stoich.html'
p158
sg10
S'chemreac/util/stoich'
p159
sg12
g13
(g14
g15
NtRp160
(dp161
g18
I1
sg19
I0
sg20
I21
sg21
I0
sg22
I0
sg23
I0
sg24
I0
sbssg25
S'\xb1\xffj@\xa3_3\xec\x9c\xc5\x9c\x96g/ ='
p162
ssS'chemreac_tests___init__'
p163
(dp164
g6
(dp165
g8
S'chemreac_tests___init__.html'
p166
sg10
S'chemreac/tests/__init__'
p167
sg12
g13
(g14
g15
NtRp168
(dp169
g18
I1
sg19
I0
sg20
I0
sg21
I0
sg22
I0
sg23
I0
sg24
I0
sbssg25
S'\xca\xf5\x9f\x7f\x88\xdfa\x831|T\x1d\xbc}\xa5v'
p170
ssS'chemreac_symbolic'
p171
(dp172
g6
(dp173
g8
S'chemreac_symbolic.html'
p174
sg10
S'chemreac/symbolic'
p175
sg12
g13
(g14
g15
NtRp176
(dp177
g18
I1
sg19
I0
sg20
I128
sg21
I0
sg22
I0
sg23
I10
sg24
I0
sbssg25
S'\xec\x07\xff\xba\x04\x17\xedW\xe8\x17\xe6c\x9fZ1\x1e'
p178
ssS'chemreac_util_tests_test_grid'
p179
(dp180
g6
(dp181
g8
S'chemreac_util_tests_test_grid.html'
p182
sg10
S'chemreac/util/tests/test_grid'
p183
sg12
g13
(g14
g15
NtRp184
(dp185
g18
I1
sg19
I0
sg20
I26
sg21
I0
sg22
I0
sg23
I0
sg24
I0
sbssg25
S"Y\xbe\x9a\xa9\x1cg\xb5=WIk~:'\x89\x8e"
p186
ssS'chemreac_util_tests_test_plotting'
p187
(dp188
g6
(dp189
g8
S'chemreac_util_tests_test_plotting.html'
p190
sg10
S'chemreac/util/tests/test_plotting'
p191
sg12
g13
(g14
g15
NtRp192
(dp193
g18
I1
sg19
I0
sg20
I104
sg21
I0
sg22
I0
sg23
I0
sg24
I0
sbssg25
S'\x08\xd1q/\x0f5W\xfe\xbd\xc8\xe9b\x07s\xe8\x95'
p194
ssS'chemreac_util_banded'
p195
(dp196
g6
(dp197
g8
S'chemreac_util_banded.html'
p198
sg10
S'chemreac/util/banded'
p199
sg12
g13
(g14
g15
NtRp200
(dp201
g18
I1
sg19
I0
sg20
I16
sg21
I0
sg22
I0
sg23
I1
sg24
I0
sbssg25
S'\xc5?\xf8*\x0etI\x9eO\xadL\x10j\xe6\x9a\x17'
p202
ssS'chemreac_util_analysis'
p203
(dp204
g6
(dp205
g8
S'chemreac_util_analysis.html'
p206
sg10
S'chemreac/util/analysis'
p207
sg12
g13
(g14
g15
NtRp208
(dp209
g18
I1
sg19
I0
sg20
I23
sg21
I0
sg22
I0
sg23
I0
sg24
I0
sbssg25
S'\xee\xe0\\\xe0\xce&\xb50\x8c\xdf\x05\x7f\x04\xed\xeb\xc6'
p210
ssS'chemreac_tests_test_integrate'
p211
(dp212
g6
(dp213
g8
S'chemreac_tests_test_integrate.html'
p214
sg10
S'chemreac/tests/test_integrate'
p215
sg12
g13
(g14
g15
NtRp216
(dp217
g18
I1
sg19
I0
sg20
I116
sg21
I0
sg22
I0
sg23
I14
sg24
I0
sbssg25
S'<\xa8:\xa8`U\xaa\xc1\xc2D\xb2z\x1d\xe5\xd6\xd2'
p218
ssS'chemreac_util_tests_test_table'
p219
(dp220
g6
(dp221
g8
S'chemreac_util_tests_test_table.html'
p222
sg10
S'chemreac/util/tests/test_table'
p223
sg12
g13
(g14
g15
NtRp224
(dp225
g18
I1
sg19
I0
sg20
I14
sg21
I0
sg22
I0
sg23
I0
sg24
I0
sbssg25
S'JB0`\x9d\x8e]~\xeb\x8f\xb0\xa2\x86ywu'
p226
ssS'chemreac_integrate'
p227
(dp228
g6
(dp229
g8
S'chemreac_integrate.html'
p230
sg10
S'chemreac/integrate'
p231
sg12
g13
(g14
g15
NtRp232
(dp233
g18
I1
sg19
I0
sg20
I169
sg21
I0
sg22
I0
sg23
I32
sg24
I0
sbssg25
S's\xad\xb0b\x99\x1a\xee\xc96\xb4W\x17{\xc0g\xe3'
p234
ssS'chemreac_tests_test_symbolic'
p235
(dp236
g6
(dp237
g8
S'chemreac_tests_test_symbolic.html'
p238
sg10
S'chemreac/tests/test_symbolic'
p239
sg12
g13
(g14
g15
NtRp240
(dp241
g18
I1
sg19
I0
sg20
I11
sg21
I0
sg22
I0
sg23
I0
sg24
I0
sbssg25
S'\x10\xc3\xd4zx\x041\xe0N\xd0\x1c0\xff\x19\xebq'
p242
ssS'chemreac_core'
p243
(dp244
g6
(dp245
g8
S'chemreac_core.html'
p246
sg10
S'chemreac/core'
p247
sg12
g13
(g14
g15
NtRp248
(dp249
g18
I1
sg19
I0
sg20
I104
sg21
I0
sg22
I0
sg23
I8
sg24
I0
sbssg25
S'u/_i\x17M\x1f\xc6\x9d\xe3\x01\x00\xcc\x84\xc1\xf7'
p250
ssS'chemreac_util_tests_test_analysis'
p251
(dp252
g6
(dp253
g8
S'chemreac_util_tests_test_analysis.html'
p254
sg10
S'chemreac/util/tests/test_analysis'
p255
sg12
g13
(g14
g15
NtRp256
(dp257
g18
I1
sg19
I0
sg20
I15
sg21
I0
sg22
I0
sg23
I0
sg24
I0
sbssg25
S'\xfa\xe5OY}\xa8\xe3\x82\xa1\xf0\x13\x05@?\x95H'
p258
ssS'chemreac_util_tests_test_banded'
p259
(dp260
g6
(dp261
g8
S'chemreac_util_tests_test_banded.html'
p262
sg10
S'chemreac/util/tests/test_banded'
p263
sg12
g13
(g14
g15
NtRp264
(dp265
g18
I1
sg19
I0
sg20
I13
sg21
I0
sg22
I0
sg23
I0
sg24
I0
sbssg25
S'\x82&{M\xedT\x83\xf2\nJ\xfb\x9eU^\x98\r'
p266
ssS'chemreac_util_grid'
p267
(dp268
g6
(dp269
g8
S'chemreac_util_grid.html'
p270
sg10
S'chemreac/util/grid'
p271
sg12
g13
(g14
g15
NtRp272
(dp273
g18
I1
sg19
I0
sg20
I14
sg21
I0
sg22
I0
sg23
I0
sg24
I0
sbssg25
S'\xf7\n\xc6\x8e\xfeo\x18\x04\xc7\xc0\x82CZ\xd0Cu'
p274
ssS'chemreac_util_graph'
p275
(dp276
g6
(dp277
g8
S'chemreac_util_graph.html'
p278
sg10
S'chemreac/util/graph'
p279
sg12
g13
(g14
g15
NtRp280
(dp281
g18
I1
sg19
I0
sg20
I33
sg21
I0
sg22
I0
sg23
I2
sg24
I0
sbssg25
S'+\xb7\xfe\xcf\xe7\xf2\xef{=C\xab!\xa5\xca\xb0X'
p282
sssS'version'
p283
S'3.7.1'
p284
sS'settings'
p285
S'\x1dF\x1b\xfc\xf3w\x91\\\xb7F\xe5F\xbd\xca\x19\xe5'
p286
sS'format'
p287
I1
s.